; Function Attrs: mustprogress uwtable
define noalias noundef nonnull ptr @lean_uv_tcp_getpeername(ptr noundef readonly captures(none) %0, ptr noundef readnone captures(none) %1) local_unnamed_addr #0 {
  %3 = alloca %struct.sockaddr_storage, align 8
  %4 = alloca i32, align 4
  %5 = getelementptr i8, ptr %0, i64 16
  %.val = load ptr, ptr %5, align 8, !tbaa !44
  call void @llvm.lifetime.start.p0(i64 128, ptr nonnull %3) #15
  call void @llvm.lifetime.start.p0(i64 4, ptr nonnull %4) #15
  store i32 128, ptr %4, align 4, !tbaa !64
  tail call void @_ZN4lean15event_loop_lockEPNS_12event_loop_tE(ptr noundef nonnull @_ZN4lean9global_evE)
  %6 = load ptr, ptr %.val, align 8, !tbaa !22
  %7 = call i32 @uv_tcp_getpeername(ptr noundef %6, ptr noundef nonnull %3, ptr noundef nonnull %4)
  call void @_ZN4lean17event_loop_unlockEPNS_12event_loop_tE(ptr noundef nonnull @_ZN4lean9global_evE)
  %8 = icmp slt i32 %7, 0
  br i1 %8, label %9, label %14

9:                                                ; preds = %2
  %10 = call ptr @lean_decode_uv_error(i32 noundef %7, ptr noundef null)
  call void @lean_inc_heartbeat()
  %11 = call noalias ptr @mi_malloc_small(i64 noundef 24) #15
  %12 = icmp eq ptr %11, null
  br i1 %12, label %13, label %_ZL23lean_io_result_mk_errorP11lean_object.exit

13:                                               ; preds = %9
  call void @lean_internal_panic_out_of_memory() #16
  unreachable

14:                                               ; preds = %2
  %15 = call noundef ptr @_ZN4lean30lean_sockaddr_to_socketaddressEPK8sockaddr(ptr noundef nonnull %3)
  call void @lean_inc_heartbeat()
  %16 = call noalias ptr @mi_malloc_small(i64 noundef 24) #15
  %17 = icmp eq ptr %16, null
  br i1 %17, label %18, label %_ZL23lean_io_result_mk_errorP11lean_object.exit

18:                                               ; preds = %14
  call void @lean_internal_panic_out_of_memory() #16
  unreachable

_ZL23lean_io_result_mk_errorP11lean_object.exit:  ; preds = %14, %9
  %.sink12 = phi ptr [ %11, %9 ], [ %16, %14 ]
  %.sink9 = phi i32 [ 16908312, %9 ], [ 131096, %14 ]
  %.sink = phi ptr [ %10, %9 ], [ %15, %14 ]
  %19 = getelementptr inbounds nuw i8, ptr %.sink12, i64 4
  store i32 1, ptr %.sink12, align 4, !tbaa !40
  store i32 %.sink9, ptr %19, align 4
  %20 = getelementptr inbounds nuw i8, ptr %.sink12, i64 8
  store ptr %.sink, ptr %20, align 8, !tbaa !34
  %21 = getelementptr inbounds nuw i8, ptr %.sink12, i64 16
  store ptr inttoptr (i64 1 to ptr), ptr %21, align 8, !tbaa !34
  call void @llvm.lifetime.end.p0(i64 4, ptr nonnull %4) #15
  call void @llvm.lifetime.end.p0(i64 128, ptr nonnull %3) #15
  ret ptr %.sink12
}